target datalayout = "e-m:e-p270:32:32-p271:32:32-p272:64:64-i64:64-i128:128-f80:128-n8:16:32:64-S128"
target triple = "x86_64-pc-linux-gnu"

%struct.wtap = type { ptr, ptr, i8, i32, i32, ptr, ptr, ptr, i32, ptr, ptr, ptr, ptr, ptr, ptr, ptr, ptr, ptr, ptr, i32, i32, ptr, ptr, ptr, ptr }

@.str = private unnamed_addr constant [7 x i8] c"MPCSII\00", align 1
@mplog_file_type_subtype = internal global i32 -1, align 4

; Function Attrs: null_pointer_is_valid sspstrong uwtable
define hidden i32 @mplog_open(ptr noundef %0, ptr noundef %1, ptr noundef %2) #0 {
  %4 = alloca i32, align 4
  %5 = alloca ptr, align 8
  %6 = alloca ptr, align 8
  %7 = alloca ptr, align 8
  %8 = alloca i8, align 1
  %9 = alloca [6 x i8], align 1
  %10 = alloca i32, align 4
  store ptr %0, ptr %5, align 8
  store ptr %1, ptr %6, align 8
  store ptr %2, ptr %7, align 8
  call void @llvm.lifetime.start.p0(i64 1, ptr %8) #5
  call void @llvm.lifetime.start.p0(i64 6, ptr %9) #5
  %11 = load ptr, ptr %5, align 8
  %12 = getelementptr inbounds nuw %struct.wtap, ptr %11, i32 0, i32 0
  %13 = load ptr, ptr %12, align 8
  %14 = getelementptr inbounds [6 x i8], ptr %9, i64 0, i64 0
  %15 = load ptr, ptr %6, align 8
  %16 = load ptr, ptr %7, align 8
  %17 = call zeroext i1 @wtap_read_bytes(ptr noundef %13, ptr noundef %14, i32 noundef 6, ptr noundef %15, ptr noundef %16)
  %18 = zext i1 %17 to i8
  store i8 %18, ptr %8, align 1
  %19 = load i8, ptr %8, align 1, !range !6, !noundef !7
  %20 = trunc i8 %19 to i1
  br i1 %20, label %27, label %21

21:                                               ; preds = %3
  %22 = load ptr, ptr %6, align 8
  %23 = load i32, ptr %22, align 4
  %24 = icmp ne i32 %23, -12
  br i1 %24, label %25, label %26

25:                                               ; preds = %21
  store i32 -1, ptr %4, align 4
  store i32 1, ptr %10, align 4
  br label %58

26:                                               ; preds = %21
  store i32 0, ptr %4, align 4
  store i32 1, ptr %10, align 4
  br label %58

27:                                               ; preds = %3
  %28 = getelementptr inbounds [6 x i8], ptr %9, i64 0, i64 0
  %29 = call i32 @memcmp(ptr noundef %28, ptr noundef @.str, i64 noundef 6) #6
  %30 = icmp ne i32 %29, 0
  br i1 %30, label %31, label %32

31:                                               ; preds = %27
  store i32 0, ptr %4, align 4
  store i32 1, ptr %10, align 4
  br label %58

32:                                               ; preds = %27
  %33 = load ptr, ptr %5, align 8
  %34 = getelementptr inbounds nuw %struct.wtap, ptr %33, i32 0, i32 19
  store i32 177, ptr %34, align 8
  %35 = load ptr, ptr %5, align 8
  %36 = getelementptr inbounds nuw %struct.wtap, ptr %35, i32 0, i32 4
  store i32 0, ptr %36, align 8
  %37 = load ptr, ptr %5, align 8
  %38 = getelementptr inbounds nuw %struct.wtap, ptr %37, i32 0, i32 20
  store i32 9, ptr %38, align 4
  %39 = load ptr, ptr %5, align 8
  %40 = getelementptr inbounds nuw %struct.wtap, ptr %39, i32 0, i32 13
  store ptr null, ptr %40, align 8
  %41 = load ptr, ptr %5, align 8
  %42 = getelementptr inbounds nuw %struct.wtap, ptr %41, i32 0, i32 15
  store ptr @mplog_read, ptr %42, align 8
  %43 = load ptr, ptr %5, align 8
  %44 = getelementptr inbounds nuw %struct.wtap, ptr %43, i32 0, i32 16
  store ptr @mplog_seek_read, ptr %44, align 8
  %45 = load i32, ptr @mplog_file_type_subtype, align 4
  %46 = load ptr, ptr %5, align 8
  %47 = getelementptr inbounds nuw %struct.wtap, ptr %46, i32 0, i32 3
  store i32 %45, ptr %47, align 4
  %48 = load ptr, ptr %5, align 8
  %49 = getelementptr inbounds nuw %struct.wtap, ptr %48, i32 0, i32 0
  %50 = load ptr, ptr %49, align 8
  %51 = load ptr, ptr %6, align 8
  %52 = call i64 @file_seek(ptr noundef %50, i64 noundef 128, i32 noundef 0, ptr noundef %51)
  %53 = icmp eq i64 -1, %52
  br i1 %53, label %54, label %55

54:                                               ; preds = %32
  store i32 -1, ptr %4, align 4
  store i32 1, ptr %10, align 4
  br label %58

55:                                               ; preds = %32
  %56 = load ptr, ptr %6, align 8
  store i32 0, ptr %56, align 4
  %57 = load ptr, ptr %5, align 8
  call void @wtap_add_generated_idb(ptr noundef %57)
  store i32 1, ptr %4, align 4
  store i32 1, ptr %10, align 4
  br label %58

58:                                               ; preds = %55, %54, %31, %26, %25
  call void @llvm.lifetime.end.p0(i64 6, ptr %9) #5
  call void @llvm.lifetime.end.p0(i64 1, ptr %8) #5
  %59 = load i32, ptr %4, align 4
  ret i32 %59
}