; Function Attrs: null_pointer_is_valid sspstrong uwtable
define hidden range(i32 -1, 2) i32 @mplog_open(ptr noundef %0, ptr noundef %1, ptr noundef %2) local_unnamed_addr #0 {
  %4 = alloca [6 x i8], align 1
  call void @llvm.lifetime.start.p0(i64 6, ptr nonnull %4) #4
  %5 = load ptr, ptr %0, align 8
  %6 = call zeroext i1 @wtap_read_bytes(ptr noundef %5, ptr noundef nonnull %4, i32 noundef 6, ptr noundef %1, ptr noundef %2)
  br i1 %6, label %9, label %7

7:                                                ; preds = %3
  %8 = load i32, ptr %1, align 4
  %.not = icmp ne i32 %8, -12
  %. = sext i1 %.not to i32
  br label %23

9:                                                ; preds = %3
  %bcmp = call i32 @bcmp(ptr noundef nonnull dereferenceable(6) %4, ptr noundef nonnull dereferenceable(6) @.str, i64 6)
  %.not16 = icmp eq i32 %bcmp, 0
  br i1 %.not16, label %10, label %23

10:                                               ; preds = %9
  %11 = getelementptr inbounds nuw i8, ptr %0, i64 144
  store i32 177, ptr %11, align 8
  %12 = getelementptr inbounds nuw i8, ptr %0, i64 24
  store i32 0, ptr %12, align 8
  %13 = getelementptr inbounds nuw i8, ptr %0, i64 148
  store i32 9, ptr %13, align 4
  %14 = getelementptr inbounds nuw i8, ptr %0, i64 96
  store ptr null, ptr %14, align 8
  %15 = getelementptr inbounds nuw i8, ptr %0, i64 112
  store ptr @mplog_read, ptr %15, align 8
  %16 = getelementptr inbounds nuw i8, ptr %0, i64 120
  store ptr @mplog_seek_read, ptr %16, align 8
  %17 = load i32, ptr @mplog_file_type_subtype, align 4
  %18 = getelementptr inbounds nuw i8, ptr %0, i64 20
  store i32 %17, ptr %18, align 4
  %19 = load ptr, ptr %0, align 8
  %20 = call i64 @file_seek(ptr noundef %19, i64 noundef 128, i32 noundef 0, ptr noundef %1)
  %21 = icmp eq i64 %20, -1
  br i1 %21, label %23, label %22

22:                                               ; preds = %10
  store i32 0, ptr %1, align 4
  call void @wtap_add_generated_idb(ptr noundef %0)
  br label %23

23:                                               ; preds = %10, %9, %7, %22
  %.0 = phi i32 [ 1, %22 ], [ %., %7 ], [ 0, %9 ], [ -1, %10 ]
  call void @llvm.lifetime.end.p0(i64 6, ptr nonnull %4) #4
  ret i32 %.0
}